target datalayout = "e-m:e-p270:32:32-p271:32:32-p272:64:64-i64:64-i128:128-f80:128-n8:16:32:64-S128"
target triple = "x86_64-pc-linux-gnu"

%struct._header_field_info = type { ptr, ptr, i32, i32, ptr, i64, ptr, i32, i32, i32, i32, ptr }
%struct._asn1_ctx_t = type { i32, i32, i8, ptr, ptr, ptr, ptr, ptr, %struct.anon.0, %struct.anon.3, %struct.anon.4, ptr }
%struct.anon.0 = type { i32, i8, i8, i8, ptr, ptr, i32, i32, ptr, ptr, ptr, %union.anon }
%union.anon = type { %struct.anon.1 }
%struct.anon.1 = type { ptr }
%struct.anon.3 = type { ptr, ptr, ptr }
%struct.anon.4 = type { i32, i8, ptr, i32, i32, ptr, ptr, ptr, %union.anon.5 }
%union.anon.5 = type { %struct.anon.6 }
%struct.anon.6 = type { ptr }

@.str.16 = private unnamed_addr constant [10 x i8] c"%s %s: %s\00", align 1
@.str.17 = private unnamed_addr constant [5 x i8] c"True\00", align 1
@.str.18 = private unnamed_addr constant [6 x i8] c"False\00", align 1

; Function Attrs: null_pointer_is_valid sspstrong uwtable
define i32 @dissect_per_boolean(ptr noundef %0, i32 noundef %1, ptr noundef %2, ptr noundef %3, i32 noundef %4, ptr noundef %5) #0 {
  %7 = alloca ptr, align 8
  %8 = alloca i32, align 4
  %9 = alloca ptr, align 8
  %10 = alloca ptr, align 8
  %11 = alloca i32, align 4
  %12 = alloca ptr, align 8
  %13 = alloca i8, align 1
  %14 = alloca i8, align 1
  %15 = alloca i8, align 1
  %16 = alloca ptr, align 8
  %17 = alloca [10 x i8], align 1
  store ptr %0, ptr %7, align 8
  store i32 %1, ptr %8, align 4
  store ptr %2, ptr %9, align 8
  store ptr %3, ptr %10, align 8
  store i32 %4, ptr %11, align 4
  store ptr %5, ptr %12, align 8
  call void @llvm.lifetime.start.p0(i64 1, ptr %13) #11
  call void @llvm.lifetime.start.p0(i64 1, ptr %14) #11
  call void @llvm.lifetime.start.p0(i64 1, ptr %15) #11
  call void @llvm.lifetime.start.p0(i64 8, ptr %16) #11
  %18 = load ptr, ptr %7, align 8
  %19 = load i32, ptr %8, align 4
  %20 = lshr i32 %19, 3
  %21 = call zeroext i8 @tvb_get_uint8(ptr noundef %18, i32 noundef %20)
  store i8 %21, ptr %13, align 1
  %22 = load i32, ptr %8, align 4
  %23 = and i32 %22, 7
  %24 = sub i32 7, %23
  %25 = shl i32 1, %24
  %26 = trunc i32 %25 to i8
  store i8 %26, ptr %14, align 1
  %27 = load i8, ptr %13, align 1
  %28 = zext i8 %27 to i32
  %29 = load i8, ptr %14, align 1
  %30 = zext i8 %29 to i32
  %31 = and i32 %28, %30
  %32 = icmp ne i32 %31, 0
  br i1 %32, label %33, label %34

33:                                               ; preds = %6
  store i8 1, ptr %15, align 1
  br label %35

34:                                               ; preds = %6
  store i8 0, ptr %15, align 1
  br label %35

35:                                               ; preds = %34, %33
  %36 = load i32, ptr %11, align 4
  %37 = icmp sgt i32 %36, 0
  br i1 %37, label %38, label %173

38:                                               ; preds = %35
  call void @llvm.lifetime.start.p0(i64 10, ptr %17) #11
  %39 = load i8, ptr %14, align 1
  %40 = zext i8 %39 to i32
  %41 = and i32 %40, 128
  %42 = icmp ne i32 %41, 0
  br i1 %42, label %43, label %48

43:                                               ; preds = %38
  %44 = load i8, ptr %15, align 1, !range !6, !noundef !7
  %45 = trunc i8 %44 to i1
  %46 = zext i1 %45 to i32
  %47 = add i32 48, %46
  br label %49

48:                                               ; preds = %38
  br label %49

49:                                               ; preds = %48, %43
  %50 = phi i32 [ %47, %43 ], [ 46, %48 ]
  %51 = trunc i32 %50 to i8
  %52 = getelementptr [10 x i8], ptr %17, i64 0, i64 0
  store i8 %51, ptr %52, align 1
  %53 = load i8, ptr %14, align 1
  %54 = zext i8 %53 to i32
  %55 = and i32 %54, 64
  %56 = icmp ne i32 %55, 0
  br i1 %56, label %57, label %62

57:                                               ; preds = %49
  %58 = load i8, ptr %15, align 1, !range !6, !noundef !7
  %59 = trunc i8 %58 to i1
  %60 = zext i1 %59 to i32
  %61 = add i32 48, %60
  br label %63

62:                                               ; preds = %49
  br label %63

63:                                               ; preds = %62, %57
  %64 = phi i32 [ %61, %57 ], [ 46, %62 ]
  %65 = trunc i32 %64 to i8
  %66 = getelementptr [10 x i8], ptr %17, i64 0, i64 1
  store i8 %65, ptr %66, align 1
  %67 = load i8, ptr %14, align 1
  %68 = zext i8 %67 to i32
  %69 = and i32 %68, 32
  %70 = icmp ne i32 %69, 0
  br i1 %70, label %71, label %76

71:                                               ; preds = %63
  %72 = load i8, ptr %15, align 1, !range !6, !noundef !7
  %73 = trunc i8 %72 to i1
  %74 = zext i1 %73 to i32
  %75 = add i32 48, %74
  br label %77

76:                                               ; preds = %63
  br label %77

77:                                               ; preds = %76, %71
  %78 = phi i32 [ %75, %71 ], [ 46, %76 ]
  %79 = trunc i32 %78 to i8
  %80 = getelementptr [10 x i8], ptr %17, i64 0, i64 2
  store i8 %79, ptr %80, align 1
  %81 = load i8, ptr %14, align 1
  %82 = zext i8 %81 to i32
  %83 = and i32 %82, 16
  %84 = icmp ne i32 %83, 0
  br i1 %84, label %85, label %90

85:                                               ; preds = %77
  %86 = load i8, ptr %15, align 1, !range !6, !noundef !7
  %87 = trunc i8 %86 to i1
  %88 = zext i1 %87 to i32
  %89 = add i32 48, %88
  br label %91

90:                                               ; preds = %77
  br label %91

91:                                               ; preds = %90, %85
  %92 = phi i32 [ %89, %85 ], [ 46, %90 ]
  %93 = trunc i32 %92 to i8
  %94 = getelementptr [10 x i8], ptr %17, i64 0, i64 3
  store i8 %93, ptr %94, align 1
  %95 = getelementptr [10 x i8], ptr %17, i64 0, i64 4
  store i8 32, ptr %95, align 1
  %96 = load i8, ptr %14, align 1
  %97 = zext i8 %96 to i32
  %98 = and i32 %97, 8
  %99 = icmp ne i32 %98, 0
  br i1 %99, label %100, label %105

100:                                              ; preds = %91
  %101 = load i8, ptr %15, align 1, !range !6, !noundef !7
  %102 = trunc i8 %101 to i1
  %103 = zext i1 %102 to i32
  %104 = add i32 48, %103
  br label %106

105:                                              ; preds = %91
  br label %106

106:                                              ; preds = %105, %100
  %107 = phi i32 [ %104, %100 ], [ 46, %105 ]
  %108 = trunc i32 %107 to i8
  %109 = getelementptr [10 x i8], ptr %17, i64 0, i64 5
  store i8 %108, ptr %109, align 1
  %110 = load i8, ptr %14, align 1
  %111 = zext i8 %110 to i32
  %112 = and i32 %111, 4
  %113 = icmp ne i32 %112, 0
  br i1 %113, label %114, label %119

114:                                              ; preds = %106
  %115 = load i8, ptr %15, align 1, !range !6, !noundef !7
  %116 = trunc i8 %115 to i1
  %117 = zext i1 %116 to i32
  %118 = add i32 48, %117
  br label %120

119:                                              ; preds = %106
  br label %120

120:                                              ; preds = %119, %114
  %121 = phi i32 [ %118, %114 ], [ 46, %119 ]
  %122 = trunc i32 %121 to i8
  %123 = getelementptr [10 x i8], ptr %17, i64 0, i64 6
  store i8 %122, ptr %123, align 1
  %124 = load i8, ptr %14, align 1
  %125 = zext i8 %124 to i32
  %126 = and i32 %125, 2
  %127 = icmp ne i32 %126, 0
  br i1 %127, label %128, label %133

128:                                              ; preds = %120
  %129 = load i8, ptr %15, align 1, !range !6, !noundef !7
  %130 = trunc i8 %129 to i1
  %131 = zext i1 %130 to i32
  %132 = add i32 48, %131
  br label %134

133:                                              ; preds = %120
  br label %134

134:                                              ; preds = %133, %128
  %135 = phi i32 [ %132, %128 ], [ 46, %133 ]
  %136 = trunc i32 %135 to i8
  %137 = getelementptr [10 x i8], ptr %17, i64 0, i64 7
  store i8 %136, ptr %137, align 1
  %138 = load i8, ptr %14, align 1
  %139 = zext i8 %138 to i32
  %140 = and i32 %139, 1
  %141 = icmp ne i32 %140, 0
  br i1 %141, label %142, label %147

142:                                              ; preds = %134
  %143 = load i8, ptr %15, align 1, !range !6, !noundef !7
  %144 = trunc i8 %143 to i1
  %145 = zext i1 %144 to i32
  %146 = add i32 48, %145
  br label %148

147:                                              ; preds = %134
  br label %148

148:                                              ; preds = %147, %142
  %149 = phi i32 [ %146, %142 ], [ 46, %147 ]
  %150 = trunc i32 %149 to i8
  %151 = getelementptr [10 x i8], ptr %17, i64 0, i64 8
  store i8 %150, ptr %151, align 1
  %152 = getelementptr [10 x i8], ptr %17, i64 0, i64 9
  store i8 0, ptr %152, align 1
  %153 = load i32, ptr %11, align 4
  %154 = call ptr @proto_registrar_get_nth(i32 noundef %153)
  store ptr %154, ptr %16, align 8
  %155 = load ptr, ptr %10, align 8
  %156 = load i32, ptr %11, align 4
  %157 = load ptr, ptr %7, align 8
  %158 = load i32, ptr %8, align 4
  %159 = lshr i32 %158, 3
  %160 = load i8, ptr %15, align 1, !range !6, !noundef !7
  %161 = trunc i8 %160 to i1
  %162 = zext i1 %161 to i64
  %163 = getelementptr inbounds [10 x i8], ptr %17, i64 0, i64 0
  %164 = load ptr, ptr %16, align 8
  %165 = getelementptr inbounds nuw %struct._header_field_info, ptr %164, i32 0, i32 0
  %166 = load ptr, ptr %165, align 8
  %167 = load i8, ptr %15, align 1, !range !6, !noundef !7
  %168 = trunc i8 %167 to i1
  %169 = select i1 %168, ptr @.str.17, ptr @.str.18
  %170 = call ptr (ptr, i32, ptr, i32, i32, i64, ptr, ...) @proto_tree_add_boolean_format(ptr noundef %155, i32 noundef %156, ptr noundef %157, i32 noundef %159, i32 noundef 1, i64 noundef %162, ptr noundef @.str.16, ptr noundef %163, ptr noundef %166, ptr noundef %169)
  %171 = load ptr, ptr %9, align 8
  %172 = getelementptr inbounds nuw %struct._asn1_ctx_t, ptr %171, i32 0, i32 4
  store ptr %170, ptr %172, align 8
  call void @llvm.lifetime.end.p0(i64 10, ptr %17) #11
  br label %176

173:                                              ; preds = %35
  %174 = load ptr, ptr %9, align 8
  %175 = getelementptr inbounds nuw %struct._asn1_ctx_t, ptr %174, i32 0, i32 4
  store ptr null, ptr %175, align 8
  br label %176

176:                                              ; preds = %173, %148
  %177 = load ptr, ptr %12, align 8
  %178 = icmp ne ptr %177, null
  br i1 %178, label %179, label %184

179:                                              ; preds = %176
  %180 = load i8, ptr %15, align 1, !range !6, !noundef !7
  %181 = trunc i8 %180 to i1
  %182 = load ptr, ptr %12, align 8
  %183 = zext i1 %181 to i8
  store i8 %183, ptr %182, align 1
  br label %184

184:                                              ; preds = %179, %176
  %185 = load i32, ptr %8, align 4
  %186 = add i32 %185, 1
  call void @llvm.lifetime.end.p0(i64 8, ptr %16) #11
  call void @llvm.lifetime.end.p0(i64 1, ptr %15) #11
  call void @llvm.lifetime.end.p0(i64 1, ptr %14) #11
  call void @llvm.lifetime.end.p0(i64 1, ptr %13) #11
  ret i32 %186
}