; Function Attrs: null_pointer_is_valid sspstrong uwtable
define noundef i32 @dissect_per_boolean(ptr noundef %0, i32 noundef %1, ptr noundef writeonly captures(none) initializes((24, 32)) %2, ptr noundef %3, i32 noundef %4, ptr noundef writeonly captures(address_is_null) %5) local_unnamed_addr #0 {
  %7 = alloca [10 x i8], align 1
  %8 = lshr i32 %1, 3
  %9 = tail call zeroext i8 @tvb_get_uint8(ptr noundef %0, i32 noundef %8)
  %10 = and i32 %1, 7
  %11 = xor i32 %10, 7
  %12 = shl nuw nsw i32 1, %11
  %13 = zext i8 %9 to i32
  %14 = and i32 %12, %13
  %.not = icmp ne i32 %14, 0
  %15 = icmp sgt i32 %4, 0
  br i1 %15, label %16, label %46

16:                                               ; preds = %6
  call void @llvm.lifetime.start.p0(i64 10, ptr nonnull %7) #13
  %.not37.not = icmp eq i32 %10, 0
  %17 = select i1 %.not, i8 49, i8 48
  %18 = select i1 %.not37.not, i8 %17, i8 46
  store i8 %18, ptr %7, align 1
  %19 = and i32 %12, 64
  %.not38 = icmp eq i32 %19, 0
  %20 = select i1 %.not38, i8 46, i8 %17
  %21 = getelementptr inbounds nuw i8, ptr %7, i64 1
  store i8 %20, ptr %21, align 1
  %22 = and i32 %12, 32
  %.not39 = icmp eq i32 %22, 0
  %23 = select i1 %.not39, i8 46, i8 %17
  %24 = getelementptr inbounds nuw i8, ptr %7, i64 2
  store i8 %23, ptr %24, align 1
  %25 = and i32 %12, 16
  %.not40 = icmp eq i32 %25, 0
  %26 = select i1 %.not40, i8 46, i8 %17
  %27 = getelementptr inbounds nuw i8, ptr %7, i64 3
  store i8 %26, ptr %27, align 1
  %28 = getelementptr inbounds nuw i8, ptr %7, i64 4
  store i8 32, ptr %28, align 1
  %29 = and i32 %12, 8
  %.not41 = icmp eq i32 %29, 0
  %30 = select i1 %.not41, i8 46, i8 %17
  %31 = getelementptr inbounds nuw i8, ptr %7, i64 5
  store i8 %30, ptr %31, align 1
  %32 = and i32 %12, 4
  %.not42 = icmp eq i32 %32, 0
  %33 = select i1 %.not42, i8 46, i8 %17
  %34 = getelementptr inbounds nuw i8, ptr %7, i64 6
  store i8 %33, ptr %34, align 1
  %35 = and i32 %12, 2
  %.not43 = icmp eq i32 %35, 0
  %36 = select i1 %.not43, i8 46, i8 %17
  %37 = getelementptr inbounds nuw i8, ptr %7, i64 7
  store i8 %36, ptr %37, align 1
  %.not44.not = icmp eq i32 %10, 7
  %38 = select i1 %.not44.not, i8 %17, i8 46
  %39 = getelementptr inbounds nuw i8, ptr %7, i64 8
  store i8 %38, ptr %39, align 1
  %40 = getelementptr inbounds nuw i8, ptr %7, i64 9
  store i8 0, ptr %40, align 1
  %41 = tail call ptr @proto_registrar_get_nth(i32 noundef %4)
  %42 = zext i1 %.not to i64
  %43 = load ptr, ptr %41, align 8
  %44 = select i1 %.not, ptr @.str.17, ptr @.str.18
  %45 = call ptr (ptr, i32, ptr, i32, i32, i64, ptr, ...) @proto_tree_add_boolean_format(ptr noundef %3, i32 noundef %4, ptr noundef %0, i32 noundef %8, i32 noundef 1, i64 noundef %42, ptr noundef nonnull @.str.16, ptr noundef nonnull %7, ptr noundef %43, ptr noundef nonnull %44)
  call void @llvm.lifetime.end.p0(i64 10, ptr nonnull %7) #13
  br label %46

46:                                               ; preds = %6, %16
  %.sink = phi ptr [ %45, %16 ], [ null, %6 ]
  %47 = getelementptr inbounds nuw i8, ptr %2, i64 24
  store ptr %.sink, ptr %47, align 8
  %.not45 = icmp eq ptr %5, null
  br i1 %.not45, label %50, label %48

48:                                               ; preds = %46
  %49 = zext i1 %.not to i8
  store i8 %49, ptr %5, align 1
  br label %50

50:                                               ; preds = %48, %46
  %51 = add i32 %1, 1
  ret i32 %51
}